; Function Attrs: nounwind uwtable
define ptr @l_Lean_PrettyPrinter_Parenthesizer_ite___rarg(i8 noundef zeroext %0, ptr noundef %1, ptr noundef %2, ptr noundef %3, ptr noundef %4, ptr noundef %5, ptr noundef %6, ptr noundef %7) local_unnamed_addr #0 {
  %9 = icmp eq i8 %0, 0
  br i1 %9, label %10, label %20

10:                                               ; preds = %8
  %11 = ptrtoint ptr %1 to i64
  %12 = and i64 %11, 1
  %.not20 = icmp eq i64 %12, 0
  br i1 %.not20, label %13, label %lean_dec.exit17

13:                                               ; preds = %10
  %14 = load i32, ptr %1, align 4, !tbaa !8
  %15 = icmp sgt i32 %14, 1
  br i1 %15, label %16, label %18, !prof !11

16:                                               ; preds = %13
  %17 = add nsw i32 %14, -1
  store i32 %17, ptr %1, align 4, !tbaa !8
  br label %lean_dec.exit17

18:                                               ; preds = %13
  %.not.i = icmp eq i32 %14, 0
  br i1 %.not.i, label %lean_dec.exit17, label %19

19:                                               ; preds = %18
  tail call void @lean_dec_ref_cold(ptr noundef nonnull %1) #6
  br label %lean_dec.exit17

20:                                               ; preds = %8
  %21 = ptrtoint ptr %2 to i64
  %22 = and i64 %21, 1
  %.not = icmp eq i64 %22, 0
  br i1 %.not, label %23, label %lean_dec.exit17

23:                                               ; preds = %20
  %24 = load i32, ptr %2, align 4, !tbaa !8
  %25 = icmp sgt i32 %24, 1
  br i1 %25, label %26, label %28, !prof !11

26:                                               ; preds = %23
  %27 = add nsw i32 %24, -1
  store i32 %27, ptr %2, align 4, !tbaa !8
  br label %lean_dec.exit17

28:                                               ; preds = %23
  %.not.i18 = icmp eq i32 %24, 0
  br i1 %.not.i18, label %lean_dec.exit17, label %29

29:                                               ; preds = %28
  tail call void @lean_dec_ref_cold(ptr noundef nonnull %2) #6
  br label %lean_dec.exit17

lean_dec.exit17:                                  ; preds = %20, %26, %28, %29, %10, %16, %18, %19
  %.sink = phi ptr [ %2, %19 ], [ %2, %18 ], [ %2, %16 ], [ %2, %10 ], [ %1, %29 ], [ %1, %28 ], [ %1, %26 ], [ %1, %20 ]
  %30 = tail call ptr @lean_apply_5(ptr noundef %.sink, ptr noundef %3, ptr noundef %4, ptr noundef %5, ptr noundef %6, ptr noundef %7) #6
  ret ptr %30
}